; Function Attrs: mustprogress nounwind uwtable
define dso_local noundef i32 @_ZN4llvm15LegalizerHelper14lowerFConstantERNS_12MachineInstrE(ptr nocapture noundef nonnull readonly align 8 dereferenceable(48) %0, ptr noundef nonnull align 8 dereferenceable(70) %1) local_unnamed_addr #0 align 2 {
  %3 = getelementptr inbounds nuw i8, ptr %1, i64 32
  %4 = load ptr, ptr %3, align 8
  %5 = getelementptr inbounds i8, ptr %4, i64 48
  %6 = load ptr, ptr %5, align 8
  %7 = getelementptr inbounds nuw i8, ptr %4, i64 4
  %8 = load i32, ptr %7, align 4
  %9 = load ptr, ptr %0, align 8
  tail call fastcc void @_ZL24emitLoadFromConstantPoolN4llvm8RegisterEPKNS_8ConstantERNS_16MachineIRBuilderE(i32 %8, ptr noundef %6, ptr noundef nonnull align 8 dereferenceable(88) %9)
  tail call void @_ZN4llvm12MachineInstr15eraseFromParentEv(ptr noundef nonnull align 8 dereferenceable(70) %1) #18
  ret i32 1
}